target datalayout = "e-m:e-p270:32:32-p271:32:32-p272:64:64-i64:64-i128:128-f80:128-n8:16:32:64-S128"
target triple = "x86_64-pc-linux-gnu"

%struct.pkey_blocking_generate_arg = type { ptr, ptr, i32, i8 }

; Function Attrs: nounwind sspstrong uwtable
define internal ptr @pkey_blocking_gen(ptr noundef %0) #0 {
  %2 = alloca ptr, align 8
  %3 = alloca ptr, align 8
  %4 = alloca ptr, align 8
  %5 = alloca i32, align 4
  store ptr %0, ptr %3, align 8, !tbaa !6
  call void @llvm.lifetime.start.p0(i64 8, ptr %4) #19
  %6 = load ptr, ptr %3, align 8, !tbaa !6
  store ptr %6, ptr %4, align 8, !tbaa !59
  %7 = load ptr, ptr %4, align 8, !tbaa !59
  %8 = getelementptr inbounds nuw %struct.pkey_blocking_generate_arg, ptr %7, i32 0, i32 3
  %9 = load i8, ptr %8, align 4
  %10 = lshr i8 %9, 1
  %11 = and i8 %10, 1
  %12 = zext i8 %11 to i32
  %13 = icmp ne i32 %12, 0
  br i1 %13, label %14, label %23

14:                                               ; preds = %1
  %15 = load ptr, ptr %4, align 8, !tbaa !59
  %16 = getelementptr inbounds nuw %struct.pkey_blocking_generate_arg, ptr %15, i32 0, i32 0
  %17 = load ptr, ptr %16, align 8, !tbaa !53
  %18 = load ptr, ptr %4, align 8, !tbaa !59
  %19 = getelementptr inbounds nuw %struct.pkey_blocking_generate_arg, ptr %18, i32 0, i32 1
  %20 = call i32 @EVP_PKEY_paramgen(ptr noundef %17, ptr noundef %19)
  %21 = icmp sle i32 %20, 0
  br i1 %21, label %22, label %23

22:                                               ; preds = %14
  store ptr null, ptr %2, align 8
  store i32 1, ptr %5, align 4
  br label %44

23:                                               ; preds = %14, %1
  %24 = load ptr, ptr %4, align 8, !tbaa !59
  %25 = getelementptr inbounds nuw %struct.pkey_blocking_generate_arg, ptr %24, i32 0, i32 3
  %26 = load i8, ptr %25, align 4
  %27 = lshr i8 %26, 1
  %28 = and i8 %27, 1
  %29 = zext i8 %28 to i32
  %30 = icmp ne i32 %29, 0
  br i1 %30, label %40, label %31

31:                                               ; preds = %23
  %32 = load ptr, ptr %4, align 8, !tbaa !59
  %33 = getelementptr inbounds nuw %struct.pkey_blocking_generate_arg, ptr %32, i32 0, i32 0
  %34 = load ptr, ptr %33, align 8, !tbaa !53
  %35 = load ptr, ptr %4, align 8, !tbaa !59
  %36 = getelementptr inbounds nuw %struct.pkey_blocking_generate_arg, ptr %35, i32 0, i32 1
  %37 = call i32 @EVP_PKEY_keygen(ptr noundef %34, ptr noundef %36)
  %38 = icmp sle i32 %37, 0
  br i1 %38, label %39, label %40

39:                                               ; preds = %31
  store ptr null, ptr %2, align 8
  store i32 1, ptr %5, align 4
  br label %44

40:                                               ; preds = %31, %23
  %41 = load ptr, ptr %4, align 8, !tbaa !59
  %42 = getelementptr inbounds nuw %struct.pkey_blocking_generate_arg, ptr %41, i32 0, i32 1
  %43 = load ptr, ptr %42, align 8, !tbaa !55
  store ptr %43, ptr %2, align 8
  store i32 1, ptr %5, align 4
  br label %44

44:                                               ; preds = %40, %39, %22
  call void @llvm.lifetime.end.p0(i64 8, ptr %4) #19
  %45 = load ptr, ptr %2, align 8
  ret ptr %45
}