; Function Attrs: nounwind sspstrong uwtable
define internal ptr @pkey_blocking_gen(ptr noundef %0) #0 {
  %2 = getelementptr inbounds nuw i8, ptr %0, i64 20
  %3 = load i8, ptr %2, align 4
  %4 = and i8 %3, 2
  %.not = icmp eq i8 %4, 0
  br i1 %.not, label %10, label %5

5:                                                ; preds = %1
  %6 = load ptr, ptr %0, align 8, !tbaa !113
  %7 = getelementptr inbounds nuw i8, ptr %0, i64 8
  %8 = tail call i32 @EVP_PKEY_paramgen(ptr noundef %6, ptr noundef nonnull %7) #8
  %9 = icmp slt i32 %8, 1
  br i1 %9, label %21, label %._crit_edge

._crit_edge:                                      ; preds = %5
  %.pre = load i8, ptr %2, align 4
  br label %10

10:                                               ; preds = %._crit_edge, %1
  %11 = phi i8 [ %.pre, %._crit_edge ], [ %3, %1 ]
  %12 = and i8 %11, 2
  %.not9 = icmp eq i8 %12, 0
  br i1 %.not9, label %13, label %18

13:                                               ; preds = %10
  %14 = load ptr, ptr %0, align 8, !tbaa !113
  %15 = getelementptr inbounds nuw i8, ptr %0, i64 8
  %16 = tail call i32 @EVP_PKEY_keygen(ptr noundef %14, ptr noundef nonnull %15) #8
  %17 = icmp slt i32 %16, 1
  br i1 %17, label %21, label %18

18:                                               ; preds = %13, %10
  %19 = getelementptr inbounds nuw i8, ptr %0, i64 8
  %20 = load ptr, ptr %19, align 8, !tbaa !115
  br label %21

21:                                               ; preds = %13, %5, %18
  %.0 = phi ptr [ %20, %18 ], [ null, %5 ], [ null, %13 ]
  ret ptr %.0
}